; ModuleID = '41/688.cpp'
source_filename = "41/688.cpp"
target datalayout = "e-m:e-p270:32:32-p271:32:32-p272:64:64-i64:64-f80:128-n8:16:32:64-S128"
target triple = "x86_64-pc-linux-gnu"

%"class.std::ios_base::Init" = type { i8 }
%"class.std::basic_ostream" = type { i32 (...)**, %"class.std::basic_ios" }
%"class.std::basic_ios" = type { %"class.std::ios_base", %"class.std::basic_ostream"*, i8, i8, %"class.std::basic_streambuf"*, %"class.std::ctype"*, %"class.std::num_put"*, %"class.std::num_get"* }
%"class.std::ios_base" = type { i32 (...)**, i64, i64, i32, i32, i32, %"struct.std::ios_base::_Callback_list"*, %"struct.std::ios_base::_Words", [8 x %"struct.std::ios_base::_Words"], i32, %"struct.std::ios_base::_Words"*, %"class.std::locale" }
%"struct.std::ios_base::_Callback_list" = type { %"struct.std::ios_base::_Callback_list"*, void (i32, %"class.std::ios_base"*, i32)*, i32, i32 }
%"struct.std::ios_base::_Words" = type { i8*, i64 }
%"class.std::locale" = type { %"class.std::locale::_Impl"* }
%"class.std::locale::_Impl" = type { i32, %"class.std::locale::facet"**, i64, %"class.std::locale::facet"**, i8** }
%"class.std::locale::facet" = type <{ i32 (...)**, i32, [4 x i8] }>
%"class.std::basic_streambuf" = type { i32 (...)**, i8*, i8*, i8*, i8*, i8*, i8*, %"class.std::locale" }
%"class.std::ctype" = type <{ %"class.std::locale::facet.base", [4 x i8], %struct.__locale_struct*, i8, [7 x i8], i32*, i32*, i16*, i8, [256 x i8], [256 x i8], i8, [6 x i8] }>
%"class.std::locale::facet.base" = type <{ i32 (...)**, i32 }>
%struct.__locale_struct = type { [13 x %struct.__locale_data*], i16*, i32*, i32*, [13 x i8*] }
%struct.__locale_data = type opaque
%"class.std::num_put" = type { %"class.std::locale::facet.base", [4 x i8] }
%"class.std::num_get" = type { %"class.std::locale::facet.base", [4 x i8] }

@_ZStL8__ioinit = internal global %"class.std::ios_base::Init" zeroinitializer, align 1
@__dso_handle = external hidden global i8
@_ZSt4cout = external dso_local global %"class.std::basic_ostream", align 8
@.str = private unnamed_addr constant [2 x i8] c" \00", align 1
@llvm.global_ctors = appending global [1 x { i32, void ()*, i8* }] [{ i32, void ()*, i8* } { i32 65535, void ()* @_GLOBAL__sub_I_688.cpp, i8* null }]

; Function Attrs: noinline uwtable
define internal void @__cxx_global_var_init() #0 section ".text.startup" {
  call void @_ZNSt8ios_base4InitC1Ev(%"class.std::ios_base::Init"* @_ZStL8__ioinit)
  %1 = call i32 @__cxa_atexit(void (i8*)* bitcast (void (%"class.std::ios_base::Init"*)* @_ZNSt8ios_base4InitD1Ev to void (i8*)*), i8* getelementptr inbounds (%"class.std::ios_base::Init", %"class.std::ios_base::Init"* @_ZStL8__ioinit, i32 0, i32 0), i8* @__dso_handle) #3
  ret void
}

declare dso_local void @_ZNSt8ios_base4InitC1Ev(%"class.std::ios_base::Init"*) unnamed_addr #1

; Function Attrs: nounwind
declare dso_local void @_ZNSt8ios_base4InitD1Ev(%"class.std::ios_base::Init"*) unnamed_addr #2

; Function Attrs: nounwind
declare dso_local i32 @__cxa_atexit(void (i8*)*, i8*, i8*) #3

; Function Attrs: noinline norecurse uwtable
define dso_local i32 @main() #4 {
  %1 = alloca i32, align 4
  %2 = alloca i32, align 4
  %3 = alloca i32, align 4
  %4 = alloca i32, align 4
  %5 = alloca i32, align 4
  %6 = alloca i32, align 4
  %7 = alloca [6 x i32], align 16
  store i32 0, i32* %1, align 4
  store i32 1, i32* %6, align 4
  br label %8

8:                                                ; preds = %144, %0
  %9 = load i32, i32* %6, align 4
  %10 = icmp sle i32 %9, 5
  br i1 %10, label %11, label %147

11:                                               ; preds = %8
  %12 = load i32, i32* %6, align 4
  %13 = icmp eq i32 %12, 2
  br i1 %13, label %17, label %14

14:                                               ; preds = %11
  %15 = load i32, i32* %6, align 4
  %16 = icmp eq i32 %15, 3
  br i1 %16, label %17, label %18

17:                                               ; preds = %14, %11
  br label %144

18:                                               ; preds = %14
  store i32 1, i32* %2, align 4
  br label %19

19:                                               ; preds = %139, %18
  %20 = load i32, i32* %2, align 4
  %21 = icmp sle i32 %20, 5
  br i1 %21, label %22, label %142

22:                                               ; preds = %19
  %23 = load i32, i32* %6, align 4
  %24 = load i32, i32* %2, align 4
  %25 = icmp eq i32 %23, %24
  br i1 %25, label %26, label %27

26:                                               ; preds = %22
  br label %139

27:                                               ; preds = %22
  store i32 1, i32* %3, align 4
  br label %28

28:                                               ; preds = %134, %27
  %29 = load i32, i32* %3, align 4
  %30 = icmp sle i32 %29, 5
  br i1 %30, label %31, label %137

31:                                               ; preds = %28
  %32 = load i32, i32* %6, align 4
  %33 = load i32, i32* %3, align 4
  %34 = icmp eq i32 %32, %33
  br i1 %34, label %39, label %35

35:                                               ; preds = %31
  %36 = load i32, i32* %2, align 4
  %37 = load i32, i32* %3, align 4
  %38 = icmp eq i32 %36, %37
  br i1 %38, label %39, label %40

39:                                               ; preds = %35, %31
  br label %134

40:                                               ; preds = %35
  store i32 1, i32* %4, align 4
  br label %41

41:                                               ; preds = %129, %40
  %42 = load i32, i32* %4, align 4
  %43 = icmp sle i32 %42, 5
  br i1 %43, label %44, label %132

44:                                               ; preds = %41
  %45 = load i32, i32* %6, align 4
  %46 = load i32, i32* %4, align 4
  %47 = icmp eq i32 %45, %46
  br i1 %47, label %56, label %48

48:                                               ; preds = %44
  %49 = load i32, i32* %2, align 4
  %50 = load i32, i32* %4, align 4
  %51 = icmp eq i32 %49, %50
  br i1 %51, label %56, label %52

52:                                               ; preds = %48
  %53 = load i32, i32* %3, align 4
  %54 = load i32, i32* %4, align 4
  %55 = icmp eq i32 %53, %54
  br i1 %55, label %56, label %57

56:                                               ; preds = %52, %48, %44
  br label %129

57:                                               ; preds = %52
  %58 = load i32, i32* %2, align 4
  %59 = sub nsw i32 15, %58
  %60 = load i32, i32* %3, align 4
  %61 = sub nsw i32 %59, %60
  %62 = load i32, i32* %4, align 4
  %63 = sub nsw i32 %61, %62
  %64 = load i32, i32* %6, align 4
  %65 = sub nsw i32 %63, %64
  store i32 %65, i32* %5, align 4
  %66 = load i32, i32* %6, align 4
  %67 = icmp eq i32 %66, 1
  %68 = zext i1 %67 to i32
  %69 = load i32, i32* %2, align 4
  %70 = sext i32 %69 to i64
  %71 = getelementptr inbounds [6 x i32], [6 x i32]* %7, i64 0, i64 %70
  store i32 %68, i32* %71, align 4
  %72 = load i32, i32* %3, align 4
  %73 = icmp eq i32 %72, 2
  %74 = zext i1 %73 to i32
  %75 = load i32, i32* %3, align 4
  %76 = sext i32 %75 to i64
  %77 = getelementptr inbounds [6 x i32], [6 x i32]* %7, i64 0, i64 %76
  store i32 %74, i32* %77, align 4
  %78 = load i32, i32* %2, align 4
  %79 = icmp eq i32 %78, 5
  %80 = zext i1 %79 to i32
  %81 = load i32, i32* %4, align 4
  %82 = sext i32 %81 to i64
  %83 = getelementptr inbounds [6 x i32], [6 x i32]* %7, i64 0, i64 %82
  store i32 %80, i32* %83, align 4
  %84 = load i32, i32* %4, align 4
  %85 = icmp ne i32 %84, 1
  %86 = zext i1 %85 to i32
  %87 = load i32, i32* %5, align 4
  %88 = sext i32 %87 to i64
  %89 = getelementptr inbounds [6 x i32], [6 x i32]* %7, i64 0, i64 %88
  store i32 %86, i32* %89, align 4
  %90 = load i32, i32* %5, align 4
  %91 = icmp eq i32 %90, 1
  %92 = zext i1 %91 to i32
  %93 = load i32, i32* %6, align 4
  %94 = sext i32 %93 to i64
  %95 = getelementptr inbounds [6 x i32], [6 x i32]* %7, i64 0, i64 %94
  store i32 %92, i32* %95, align 4
  %96 = getelementptr inbounds [6 x i32], [6 x i32]* %7, i64 0, i64 1
  %97 = load i32, i32* %96, align 4
  %98 = getelementptr inbounds [6 x i32], [6 x i32]* %7, i64 0, i64 2
  %99 = load i32, i32* %98, align 8
  %100 = add nsw i32 %97, %99
  %101 = icmp eq i32 %100, 2
  br i1 %101, label %102, label %127

102:                                              ; preds = %57
  %103 = getelementptr inbounds [6 x i32], [6 x i32]* %7, i64 0, i64 3
  %104 = load i32, i32* %103, align 4
  %105 = getelementptr inbounds [6 x i32], [6 x i32]* %7, i64 0, i64 4
  %106 = load i32, i32* %105, align 16
  %107 = add nsw i32 %104, %106
  %108 = getelementptr inbounds [6 x i32], [6 x i32]* %7, i64 0, i64 5
  %109 = load i32, i32* %108, align 4
  %110 = add nsw i32 %107, %109
  %111 = icmp eq i32 %110, 0
  br i1 %111, label %112, label %127

112:                                              ; preds = %102
  %113 = load i32, i32* %2, align 4
  %114 = call dereferenceable(272) %"class.std::basic_ostream"* @_ZNSolsEi(%"class.std::basic_ostream"* @_ZSt4cout, i32 %113)
  %115 = call dereferenceable(272) %"class.std::basic_ostream"* @_ZStlsISt11char_traitsIcEERSt13basic_ostreamIcT_ES5_PKc(%"class.std::basic_ostream"* dereferenceable(272) %114, i8* getelementptr inbounds ([2 x i8], [2 x i8]* @.str, i64 0, i64 0))
  %116 = load i32, i32* %3, align 4
  %117 = call dereferenceable(272) %"class.std::basic_ostream"* @_ZNSolsEi(%"class.std::basic_ostream"* %115, i32 %116)
  %118 = call dereferenceable(272) %"class.std::basic_ostream"* @_ZStlsISt11char_traitsIcEERSt13basic_ostreamIcT_ES5_PKc(%"class.std::basic_ostream"* dereferenceable(272) %117, i8* getelementptr inbounds ([2 x i8], [2 x i8]* @.str, i64 0, i64 0))
  %119 = load i32, i32* %4, align 4
  %120 = call dereferenceable(272) %"class.std::basic_ostream"* @_ZNSolsEi(%"class.std::basic_ostream"* %118, i32 %119)
  %121 = call dereferenceable(272) %"class.std::basic_ostream"* @_ZStlsISt11char_traitsIcEERSt13basic_ostreamIcT_ES5_PKc(%"class.std::basic_ostream"* dereferenceable(272) %120, i8* getelementptr inbounds ([2 x i8], [2 x i8]* @.str, i64 0, i64 0))
  %122 = load i32, i32* %5, align 4
  %123 = call dereferenceable(272) %"class.std::basic_ostream"* @_ZNSolsEi(%"class.std::basic_ostream"* %121, i32 %122)
  %124 = call dereferenceable(272) %"class.std::basic_ostream"* @_ZStlsISt11char_traitsIcEERSt13basic_ostreamIcT_ES5_PKc(%"class.std::basic_ostream"* dereferenceable(272) %123, i8* getelementptr inbounds ([2 x i8], [2 x i8]* @.str, i64 0, i64 0))
  %125 = load i32, i32* %6, align 4
  %126 = call dereferenceable(272) %"class.std::basic_ostream"* @_ZNSolsEi(%"class.std::basic_ostream"* %124, i32 %125)
  br label %127

127:                                              ; preds = %112, %102, %57
  br label %128

128:                                              ; preds = %127
  br label %129

129:                                              ; preds = %128, %56
  %130 = load i32, i32* %4, align 4
  %131 = add nsw i32 %130, 1
  store i32 %131, i32* %4, align 4
  br label %41

132:                                              ; preds = %41
  br label %133

133:                                              ; preds = %132
  br label %134

134:                                              ; preds = %133, %39
  %135 = load i32, i32* %3, align 4
  %136 = add nsw i32 %135, 1
  store i32 %136, i32* %3, align 4
  br label %28

137:                                              ; preds = %28
  br label %138

138:                                              ; preds = %137
  br label %139

139:                                              ; preds = %138, %26
  %140 = load i32, i32* %2, align 4
  %141 = add nsw i32 %140, 1
  store i32 %141, i32* %2, align 4
  br label %19

142:                                              ; preds = %19
  br label %143

143:                                              ; preds = %142
  br label %144

144:                                              ; preds = %143, %17
  %145 = load i32, i32* %6, align 4
  %146 = add nsw i32 %145, 1
  store i32 %146, i32* %6, align 4
  br label %8

147:                                              ; preds = %8
  ret i32 0
}

declare dso_local dereferenceable(272) %"class.std::basic_ostream"* @_ZStlsISt11char_traitsIcEERSt13basic_ostreamIcT_ES5_PKc(%"class.std::basic_ostream"* dereferenceable(272), i8*) #1

declare dso_local dereferenceable(272) %"class.std::basic_ostream"* @_ZNSolsEi(%"class.std::basic_ostream"*, i32) #1

; Function Attrs: noinline uwtable
define internal void @_GLOBAL__sub_I_688.cpp() #0 section ".text.startup" {
  call void @__cxx_global_var_init()
  ret void
}


!llvm.module.flags = !{!0}
!llvm.ident = !{!1}

!0 = !{i32 1, !"wchar_size", i32 4}
!1 = !{!"clang version 10.0.0-4ubuntu1 "}
